(i__main__
LogFile
p0
(dp1
S'_installed_files'
p2
(dp3
S'../../MTree/genConf/MTree'
p4
(dp5
S'../../../MTree/genConf/MTree/MTree_confDb.py'
p6
S'../../InstallArea/python/MTree/MTree_confDb.py'
p7
sS'../../../MTree/genConf/MTree/MTreeConf.py'
p8
S'../../InstallArea/python/MTree/MTreeConf.py'
p9
sssb.